Certificate:
    Data:
        Version: 3 (0x2)
        Serial Number:
            d2:77:32:fd:a0:de:0a:59:0e:92:1b:78:6f:72:52:04
        Signature Algorithm: sha256WithRSAEncryption
        Issuer: CN=Easy-RSA CA
        Validity
            Not Before: Nov 14 05:56:30 2023 GMT
            Not After : Feb 16 05:56:30 2026 GMT
        Subject: CN=airgens
        Subject Public Key Info:
            Public Key Algorithm: rsaEncryption
                Public-Key: (2048 bit)
                Modulus:
                    00:ac:d2:91:db:bc:4a:77:77:57:54:1a:5c:b4:1c:
                    bd:63:16:56:c1:68:aa:5f:93:b9:9c:24:4e:c3:48:
                    2b:8c:ff:f5:08:dc:36:92:7d:01:6b:0e:7d:f2:68:
                    3c:87:e8:8d:12:4d:fe:2e:e4:a9:22:bc:dd:3e:cb:
                    f2:0f:2f:d6:2e:b9:00:71:90:ff:0f:1e:09:66:8c:
                    f0:d4:0f:4d:21:bb:e0:9f:dc:d1:20:f4:b8:ce:e9:
                    89:bf:1c:a7:8d:1c:73:8b:c3:6b:49:f7:0f:0b:b3:
                    1d:f1:d3:46:3e:ea:8b:8e:45:d2:99:a2:a3:d6:21:
                    84:9f:97:3e:b1:6a:b0:c4:4c:f0:c4:72:88:ef:68:
                    5d:10:f1:14:29:96:cb:ec:1c:7a:43:71:e1:cc:18:
                    f4:24:b5:e7:c3:6c:cd:cb:7f:37:fd:cf:c5:33:7b:
                    5f:06:1a:46:ac:63:69:05:9b:80:f1:27:d5:2d:1a:
                    4d:e5:fa:78:0d:da:c3:39:6d:a5:28:7e:f2:7a:9b:
                    e0:e2:e8:59:cf:46:f1:b3:55:44:96:41:52:bd:dd:
                    47:ac:63:91:56:4f:0f:04:be:3c:43:cc:40:18:78:
                    6b:04:a6:63:15:3a:76:0c:cb:d9:c4:db:00:fb:7c:
                    63:2d:63:e0:c5:70:d8:d2:dd:4c:e0:be:51:2e:20:
                    67:0d
                Exponent: 65537 (0x10001)
        X509v3 extensions:
            X509v3 Basic Constraints: 
                CA:FALSE
            X509v3 Subject Key Identifier: 
                D3:62:95:AC:95:DA:59:9D:5A:23:EF:DA:57:CA:D2:3A:4A:15:04:EF
            X509v3 Authority Key Identifier: 
                keyid:5F:54:DF:29:BB:89:80:C8:7D:A4:7F:25:17:1F:60:88:81:03:C4:B1
                DirName:/CN=Easy-RSA CA
                serial:76:93:8B:27:0C:D1:2A:7F:3C:F6:32:01:1A:54:88:E6:F1:35:8A:BB
            X509v3 Extended Key Usage: 
                TLS Web Client Authentication
            X509v3 Key Usage: 
                Digital Signature
    Signature Algorithm: sha256WithRSAEncryption
    Signature Value:
        1a:d2:8f:bc:fe:29:92:69:03:e6:e9:57:76:58:d7:b6:a9:e1:
        74:65:f8:de:16:a2:34:60:a7:d9:9c:f6:2e:44:c6:62:56:6f:
        79:e9:4a:98:91:bf:d5:15:2c:8a:3c:87:6d:7f:c9:e1:53:b3:
        79:35:48:5e:e6:33:7f:11:13:47:a8:9a:f1:e3:03:bf:ba:1b:
        ea:32:2e:f3:a4:9f:f2:d2:fd:3b:e0:49:6c:3c:fa:6a:ec:91:
        5b:6d:97:86:0c:1f:1d:07:a2:21:44:70:78:b1:88:83:3e:b7:
        6b:6f:35:05:0b:e0:d6:74:58:3a:49:7d:d1:3f:b6:38:21:13:
        37:43:22:16:b6:a1:bf:b9:cc:de:d9:0f:dd:b7:e6:b2:54:93:
        59:e6:8c:b9:95:8a:5e:f0:1b:5c:e3:80:bb:c5:45:4c:8f:29:
        74:bb:92:da:db:90:71:30:59:85:b4:cf:35:65:c9:8a:be:a5:
        4d:02:d8:06:d2:d3:5c:cd:49:c4:3f:fa:8b:30:ed:3e:a6:06:
        42:09:ce:a2:23:02:67:8d:1e:78:df:13:95:bb:56:ec:7f:ff:
        e1:ac:59:7f:4e:2f:29:d3:e8:f0:94:eb:a2:77:99:a7:4b:7a:
        6c:8b:0a:e9:1c:3e:33:ac:56:5e:2d:5d:6d:87:e4:78:2c:df:
        ad:71:ec:4c
-----BEGIN CERTIFICATE-----
MIIDVjCCAj6gAwIBAgIRANJ3Mv2g3gpZDpIbeG9yUgQwDQYJKoZIhvcNAQELBQAw
FjEUMBIGA1UEAwwLRWFzeS1SU0EgQ0EwHhcNMjMxMTE0MDU1NjMwWhcNMjYwMjE2
MDU1NjMwWjASMRAwDgYDVQQDDAdhaXJnZW5zMIIBIjANBgkqhkiG9w0BAQEFAAOC
AQ8AMIIBCgKCAQEArNKR27xKd3dXVBpctBy9YxZWwWiqX5O5nCROw0grjP/1CNw2
kn0Baw598mg8h+iNEk3+LuSpIrzdPsvyDy/WLrkAcZD/Dx4JZozw1A9NIbvgn9zR
IPS4zumJvxynjRxzi8NrSfcPC7Md8dNGPuqLjkXSmaKj1iGEn5c+sWqwxEzwxHKI
72hdEPEUKZbL7Bx6Q3HhzBj0JLXnw2zNy383/c/FM3tfBhpGrGNpBZuA8SfVLRpN
5fp4DdrDOW2lKH7yepvg4uhZz0bxs1VElkFSvd1HrGORVk8PBL48Q8xAGHhrBKZj
FTp2DMvZxNsA+3xjLWPgxXDY0t1M4L5RLiBnDQIDAQABo4GiMIGfMAkGA1UdEwQC
MAAwHQYDVR0OBBYEFNNilayV2lmdWiPv2lfK0jpKFQTvMFEGA1UdIwRKMEiAFF9U
3ym7iYDIfaR/JRcfYIiBA8SxoRqkGDAWMRQwEgYDVQQDDAtFYXN5LVJTQSBDQYIU
dpOLJwzRKn889jIBGlSI5vE1irswEwYDVR0lBAwwCgYIKwYBBQUHAwIwCwYDVR0P
BAQDAgeAMA0GCSqGSIb3DQEBCwUAA4IBAQAa0o+8/imSaQPm6Vd2WNe2qeF0Zfje
FqI0YKfZnPYuRMZiVm956UqYkb/VFSyKPIdtf8nhU7N5NUhe5jN/ERNHqJrx4wO/
uhvqMi7zpJ/y0v074ElsPPpq7JFbbZeGDB8dB6IhRHB4sYiDPrdrbzUFC+DWdFg6
SX3RP7Y4IRM3QyIWtqG/ucze2Q/dt+ayVJNZ5oy5lYpe8Btc44C7xUVMjyl0u5La
25BxMFmFtM81ZcmKvqVNAtgG0tNczUnEP/qLMO0+pgZCCc6iIwJnjR543xOVu1bs
f//hrFl/Ti8p0+jwlOuid5mnS3psiwrpHD4zrFZeLV1th+R4LN+tcexM
-----END CERTIFICATE-----
